target datalayout = "e-m:e-p270:32:32-p271:32:32-p272:64:64-i64:64-i128:128-f80:128-n8:16:32:64-S128"
target triple = "x86_64-pc-linux-gnu"

%struct.pm_lex_mode = type { i32, %union.anon, ptr }
%union.anon = type { %struct.anon.3 }
%struct.anon.3 = type { %struct.pm_heredoc_lex_mode_t, ptr, ptr, i8 }
%struct.pm_heredoc_lex_mode_t = type { ptr, i64, i32, i32 }
%struct.pm_parser = type { i32, i32, i32, i32, i32, i32, i32, %struct.anon, ptr, ptr, %struct.pm_token_t, %struct.pm_token_t, ptr, ptr, %struct.pm_list_t, %struct.pm_list_t, %struct.pm_location_t, %struct.pm_list_t, %struct.pm_list_t, ptr, ptr, ptr, ptr, ptr, ptr, ptr, %struct.pm_string_t, %struct.pm_constant_pool_t, %struct.pm_newline_list_t, i16, %struct.pm_string_t, i32, ptr, ptr, i32, i8, i8, i8, i8, i8, i8, i8, i8, i8, i8, i8, i8, i8 }
%struct.anon = type { ptr, [4 x %struct.pm_lex_mode], i64 }
%struct.pm_token_t = type { i32, ptr, ptr }
%struct.pm_location_t = type { ptr, ptr }
%struct.pm_list_t = type { i64, ptr, ptr }
%struct.pm_constant_pool_t = type { ptr, ptr, i32, i32 }
%struct.pm_newline_list_t = type { ptr, i64, i64, ptr }
%struct.pm_string_t = type { ptr, i64, i32 }
%struct.pm_node_list = type { i64, i64, ptr }
%struct.pm_node = type { i16, i16, i32, %struct.pm_location_t }
%struct.pm_interpolated_regular_expression_node = type { %struct.pm_node, %struct.pm_location_t, %struct.pm_node_list, %struct.pm_location_t }

@stderr = external global ptr, align 8
@.str.94 = private unnamed_addr constant [29 x i8] c"Failed to allocate %d bytes\0A\00", align 1

; Function Attrs: inlinehint nounwind sspstrong uwtable
define internal ptr @pm_node_alloc(ptr noundef %0, i64 noundef %1) #7 {
  %3 = alloca ptr, align 8
  %4 = alloca i64, align 8
  %5 = alloca ptr, align 8
  store ptr %0, ptr %3, align 8, !tbaa !7
  store i64 %1, ptr %4, align 8, !tbaa !14
  call void @llvm.lifetime.start.p0(i64 8, ptr %5) #15
  %6 = load i64, ptr %4, align 8, !tbaa !14
  %7 = call noalias ptr @calloc(i64 noundef 1, i64 noundef %6) #18
  store ptr %7, ptr %5, align 8, !tbaa !57
  %8 = load ptr, ptr %5, align 8, !tbaa !57
  %9 = icmp eq ptr %8, null
  br i1 %9, label %10, label %15

10:                                               ; preds = %2
  %11 = load ptr, ptr @stderr, align 8, !tbaa !452
  %12 = load i64, ptr %4, align 8, !tbaa !14
  %13 = trunc i64 %12 to i32
  %14 = call i32 (ptr, i32, ptr, ...) @__fprintf_chk(ptr noundef %11, i32 noundef 1, ptr noundef @.str.94, i32 noundef %13)
  call void @abort() #19
  unreachable

15:                                               ; preds = %2
  %16 = load ptr, ptr %5, align 8, !tbaa !57
  call void @llvm.lifetime.end.p0(i64 8, ptr %5) #15
  ret ptr %16
}

; Function Attrs: nounwind sspstrong uwtable
define internal ptr @pm_interpolated_regular_expression_node_create(ptr noundef %0, ptr noundef %1) #0 {
  %3 = alloca ptr, align 8
  %4 = alloca ptr, align 8
  %5 = alloca ptr, align 8
  %6 = alloca %struct.pm_interpolated_regular_expression_node, align 8
  store ptr %0, ptr %3, align 8, !tbaa !7
  store ptr %1, ptr %4, align 8, !tbaa !57
  call void @llvm.lifetime.start.p0(i64 8, ptr %5) #15
  %7 = load ptr, ptr %3, align 8, !tbaa !7
  %8 = call ptr @pm_node_alloc(ptr noundef %7, i64 noundef 80)
  store ptr %8, ptr %5, align 8, !tbaa !428
  %9 = load ptr, ptr %5, align 8, !tbaa !428
  %10 = getelementptr inbounds nuw %struct.pm_interpolated_regular_expression_node, ptr %6, i32 0, i32 0
  %11 = getelementptr inbounds nuw %struct.pm_node, ptr %10, i32 0, i32 0
  store i16 84, ptr %11, align 8, !tbaa !206
  %12 = getelementptr inbounds nuw %struct.pm_node, ptr %10, i32 0, i32 1
  store i16 2, ptr %12, align 2, !tbaa !222
  %13 = getelementptr inbounds nuw %struct.pm_node, ptr %10, i32 0, i32 2
  %14 = load ptr, ptr %3, align 8, !tbaa !7
  %15 = getelementptr inbounds nuw %struct.pm_parser, ptr %14, i32 0, i32 0
  %16 = load i32, ptr %15, align 8, !tbaa !238
  %17 = add i32 %16, 1
  store i32 %17, ptr %15, align 8, !tbaa !238
  store i32 %17, ptr %13, align 4, !tbaa !239
  %18 = getelementptr inbounds nuw %struct.pm_node, ptr %10, i32 0, i32 3
  %19 = getelementptr inbounds nuw %struct.pm_location_t, ptr %18, i32 0, i32 0
  %20 = load ptr, ptr %4, align 8, !tbaa !57
  %21 = getelementptr inbounds nuw %struct.pm_token_t, ptr %20, i32 0, i32 1
  %22 = load ptr, ptr %21, align 8, !tbaa !43
  store ptr %22, ptr %19, align 8, !tbaa !152
  %23 = getelementptr inbounds nuw %struct.pm_location_t, ptr %18, i32 0, i32 1
  store ptr null, ptr %23, align 8, !tbaa !153
  %24 = getelementptr inbounds nuw %struct.pm_interpolated_regular_expression_node, ptr %6, i32 0, i32 1
  %25 = getelementptr inbounds nuw %struct.pm_location_t, ptr %24, i32 0, i32 0
  %26 = load ptr, ptr %4, align 8, !tbaa !57
  %27 = getelementptr inbounds nuw %struct.pm_token_t, ptr %26, i32 0, i32 1
  %28 = load ptr, ptr %27, align 8, !tbaa !43
  store ptr %28, ptr %25, align 8, !tbaa !152
  %29 = getelementptr inbounds nuw %struct.pm_location_t, ptr %24, i32 0, i32 1
  %30 = load ptr, ptr %4, align 8, !tbaa !57
  %31 = getelementptr inbounds nuw %struct.pm_token_t, ptr %30, i32 0, i32 2
  %32 = load ptr, ptr %31, align 8, !tbaa !44
  store ptr %32, ptr %29, align 8, !tbaa !153
  %33 = getelementptr inbounds nuw %struct.pm_interpolated_regular_expression_node, ptr %6, i32 0, i32 2
  call void @llvm.memset.p0.i64(ptr align 8 %33, i8 0, i64 24, i1 false)
  %34 = getelementptr inbounds nuw %struct.pm_interpolated_regular_expression_node, ptr %6, i32 0, i32 3
  %35 = getelementptr inbounds nuw %struct.pm_location_t, ptr %34, i32 0, i32 0
  %36 = load ptr, ptr %4, align 8, !tbaa !57
  %37 = getelementptr inbounds nuw %struct.pm_token_t, ptr %36, i32 0, i32 1
  %38 = load ptr, ptr %37, align 8, !tbaa !43
  store ptr %38, ptr %35, align 8, !tbaa !152
  %39 = getelementptr inbounds nuw %struct.pm_location_t, ptr %34, i32 0, i32 1
  %40 = load ptr, ptr %4, align 8, !tbaa !57
  %41 = getelementptr inbounds nuw %struct.pm_token_t, ptr %40, i32 0, i32 2
  %42 = load ptr, ptr %41, align 8, !tbaa !44
  store ptr %42, ptr %39, align 8, !tbaa !153
  call void @llvm.memcpy.p0.p0.i64(ptr align 8 %9, ptr align 8 %6, i64 80, i1 false), !tbaa.struct !486
  %43 = load ptr, ptr %5, align 8, !tbaa !428
  call void @llvm.lifetime.end.p0(i64 8, ptr %5) #15
  ret ptr %43
}