; Function Attrs: nounwind sspstrong uwtable
define internal fastcc noalias nonnull ptr @pm_interpolated_regular_expression_node_create(ptr noundef captures(none) %0, ptr %.8.val, ptr %.16.val) unnamed_addr #1 {
  %2 = tail call noalias dereferenceable_or_null(80) ptr @calloc(i64 noundef 1, i64 noundef 80) #34
  %3 = icmp eq ptr %2, null
  br i1 %3, label %4, label %pm_node_alloc.exit

4:                                                ; preds = %1
  %5 = load ptr, ptr @stderr, align 8, !tbaa !105
  %6 = tail call i32 (ptr, i32, ptr, ...) @__fprintf_chk(ptr noundef %5, i32 noundef 1, ptr noundef nonnull @.str.94, i32 noundef 80) #31
  tail call void @abort() #35
  unreachable

pm_node_alloc.exit:                               ; preds = %1
  %7 = load i32, ptr %0, align 8, !tbaa !107
  %8 = add i32 %7, 1
  store i32 %8, ptr %0, align 8, !tbaa !107
  store i16 84, ptr %2, align 8, !tbaa !108
  %.sroa.2.0..sroa_idx = getelementptr inbounds nuw i8, ptr %2, i64 2
  store i16 2, ptr %.sroa.2.0..sroa_idx, align 2, !tbaa !108
  %.sroa.3.0..sroa_idx = getelementptr inbounds nuw i8, ptr %2, i64 4
  store i32 %8, ptr %.sroa.3.0..sroa_idx, align 4, !tbaa !7
  %.sroa.4.0..sroa_idx = getelementptr inbounds nuw i8, ptr %2, i64 8
  store ptr %.8.val, ptr %.sroa.4.0..sroa_idx, align 8, !tbaa !14
  %.sroa.6.0..sroa_idx = getelementptr inbounds nuw i8, ptr %2, i64 24
  store ptr %.8.val, ptr %.sroa.6.0..sroa_idx, align 8, !tbaa !14
  %.sroa.7.0..sroa_idx = getelementptr inbounds nuw i8, ptr %2, i64 32
  store ptr %.16.val, ptr %.sroa.7.0..sroa_idx, align 8, !tbaa !14
  %.sroa.9.0..sroa_idx = getelementptr inbounds nuw i8, ptr %2, i64 64
  store ptr %.8.val, ptr %.sroa.9.0..sroa_idx, align 8, !tbaa !14
  %.sroa.10.0..sroa_idx = getelementptr inbounds nuw i8, ptr %2, i64 72
  store ptr %.16.val, ptr %.sroa.10.0..sroa_idx, align 8, !tbaa !14
  ret ptr %2
}